; Function Attrs: nounwind uwtable
define void @lv_bar_set_orientation(ptr noundef %0, i32 noundef %1) local_unnamed_addr #0 {
  %3 = getelementptr inbounds nuw i8, ptr %0, i64 152
  %4 = trunc i32 %1 to i8
  %5 = load i8, ptr %3, align 8
  %6 = shl i8 %4, 3
  %7 = and i8 %6, 56
  %8 = and i8 %5, -57
  %9 = or disjoint i8 %8, %7
  store i8 %9, ptr %3, align 8
  tail call void @lv_obj_invalidate(ptr noundef %0) #7
  ret void
}